target datalayout = "e-m:e-p270:32:32-p271:32:32-p272:64:64-i64:64-i128:128-f80:128-n8:16:32:64-S128"
target triple = "x86_64-pc-linux-gnu"

%struct._object = type { %union.anon, ptr }
%union.anon = type { i64 }
%struct.PyVarObject = type { %struct._object, i64 }
%struct.PyTupleObject = type { %struct.PyVarObject, [1 x ptr] }
%struct.methodcallerobject = type { %struct._object, ptr, ptr, ptr, ptr, ptr, ptr }

@.str.87 = private unnamed_addr constant [13 x i8] c"methodcaller\00", align 1

; Function Attrs: inlinehint nounwind uwtable
define internal i64 @Py_SIZE(ptr noundef %0) #3 {
  %2 = alloca ptr, align 8
  store ptr %0, ptr %2, align 8, !tbaa !4
  %3 = load ptr, ptr %2, align 8, !tbaa !4
  %4 = getelementptr inbounds nuw %struct.PyVarObject, ptr %3, i32 0, i32 1
  %5 = load i64, ptr %4, align 8, !tbaa !60
  ret i64 %5
}

; Function Attrs: inlinehint nounwind uwtable
define internal i64 @PyTuple_GET_SIZE(ptr noundef %0) #3 {
  %2 = alloca ptr, align 8
  %3 = alloca ptr, align 8
  store ptr %0, ptr %2, align 8, !tbaa !4
  call void @llvm.lifetime.start.p0(i64 8, ptr %3) #7
  %4 = load ptr, ptr %2, align 8, !tbaa !4
  store ptr %4, ptr %3, align 8, !tbaa !9
  %5 = load ptr, ptr %3, align 8, !tbaa !9
  %6 = call i64 @Py_SIZE(ptr noundef %5)
  call void @llvm.lifetime.end.p0(i64 8, ptr %3) #7
  ret i64 %6
}

; Function Attrs: inlinehint nounwind uwtable
define internal i64 @_PyVectorcall_NARGS(i64 noundef %0) #3 {
  %2 = alloca i64, align 8
  store i64 %0, ptr %2, align 8, !tbaa !18
  %3 = load i64, ptr %2, align 8, !tbaa !18
  %4 = and i64 %3, 9223372036854775807
  ret i64 %4
}

; Function Attrs: nounwind uwtable
define internal ptr @methodcaller_vectorcall(ptr noundef %0, ptr noundef %1, i64 noundef %2, ptr noundef %3) #0 {
  %5 = alloca ptr, align 8
  %6 = alloca ptr, align 8
  %7 = alloca ptr, align 8
  %8 = alloca i64, align 8
  %9 = alloca ptr, align 8
  %10 = alloca [8 x ptr], align 16
  store ptr %0, ptr %6, align 8, !tbaa !9
  store ptr %1, ptr %7, align 8, !tbaa !16
  store i64 %2, ptr %8, align 8, !tbaa !18
  store ptr %3, ptr %9, align 8, !tbaa !4
  %11 = load i64, ptr %8, align 8, !tbaa !18
  %12 = call i64 @_PyVectorcall_NARGS(i64 noundef %11)
  %13 = icmp sle i64 1, %12
  br i1 %13, label %14, label %18

14:                                               ; preds = %4
  %15 = load i64, ptr %8, align 8, !tbaa !18
  %16 = call i64 @_PyVectorcall_NARGS(i64 noundef %15)
  %17 = icmp sle i64 %16, 1
  br i1 %17, label %23, label %18

18:                                               ; preds = %14, %4
  %19 = load i64, ptr %8, align 8, !tbaa !18
  %20 = call i64 @_PyVectorcall_NARGS(i64 noundef %19)
  %21 = call i32 @_PyArg_CheckPositional(ptr noundef @.str.87, i64 noundef %20, i64 noundef 1, i64 noundef 1)
  %22 = icmp ne i32 %21, 0
  br i1 %22, label %23, label %30

23:                                               ; preds = %18, %14
  %24 = load ptr, ptr %9, align 8, !tbaa !4
  %25 = icmp eq ptr %24, null
  br i1 %25, label %31, label %26

26:                                               ; preds = %23
  %27 = load ptr, ptr %9, align 8, !tbaa !4
  %28 = call i32 @_PyArg_NoKwnames(ptr noundef @.str.87, ptr noundef %27)
  %29 = icmp ne i32 %28, 0
  br i1 %29, label %31, label %30

30:                                               ; preds = %26, %18
  store ptr null, ptr %5, align 8
  br label %62

31:                                               ; preds = %26, %23
  call void @llvm.lifetime.start.p0(i64 64, ptr %10) #7
  %32 = load ptr, ptr %7, align 8, !tbaa !16
  %33 = getelementptr ptr, ptr %32, i64 0
  %34 = load ptr, ptr %33, align 8, !tbaa !4
  %35 = getelementptr [8 x ptr], ptr %10, i64 0, i64 0
  store ptr %34, ptr %35, align 16, !tbaa !4
  %36 = getelementptr inbounds [8 x ptr], ptr %10, i64 0, i64 0
  %37 = getelementptr ptr, ptr %36, i64 1
  %38 = load ptr, ptr %6, align 8, !tbaa !9
  %39 = getelementptr inbounds nuw %struct.methodcallerobject, ptr %38, i32 0, i32 4
  %40 = load ptr, ptr %39, align 8, !tbaa !94
  %41 = getelementptr inbounds nuw %struct.PyTupleObject, ptr %40, i32 0, i32 1
  %42 = getelementptr inbounds [1 x ptr], ptr %41, i64 0, i64 0
  %43 = load ptr, ptr %6, align 8, !tbaa !9
  %44 = getelementptr inbounds nuw %struct.methodcallerobject, ptr %43, i32 0, i32 4
  %45 = load ptr, ptr %44, align 8, !tbaa !94
  %46 = call i64 @PyTuple_GET_SIZE(ptr noundef %45)
  %47 = mul i64 8, %46
  call void @llvm.memcpy.p0.p0.i64(ptr align 8 %37, ptr align 8 %42, i64 %47, i1 false)
  %48 = load ptr, ptr %6, align 8, !tbaa !9
  %49 = getelementptr inbounds nuw %struct.methodcallerobject, ptr %48, i32 0, i32 1
  %50 = load ptr, ptr %49, align 8, !tbaa !90
  %51 = getelementptr inbounds [8 x ptr], ptr %10, i64 0, i64 0
  %52 = load ptr, ptr %6, align 8, !tbaa !9
  %53 = getelementptr inbounds nuw %struct.methodcallerobject, ptr %52, i32 0, i32 2
  %54 = load ptr, ptr %53, align 8, !tbaa !92
  %55 = call i64 @PyTuple_GET_SIZE(ptr noundef %54)
  %56 = add i64 1, %55
  %57 = or i64 %56, -9223372036854775808
  %58 = load ptr, ptr %6, align 8, !tbaa !9
  %59 = getelementptr inbounds nuw %struct.methodcallerobject, ptr %58, i32 0, i32 5
  %60 = load ptr, ptr %59, align 8, !tbaa !95
  %61 = call ptr @PyObject_VectorcallMethod(ptr noundef %50, ptr noundef %51, i64 noundef %57, ptr noundef %60)
  store ptr %61, ptr %5, align 8
  call void @llvm.lifetime.end.p0(i64 64, ptr %10) #7
  br label %62

62:                                               ; preds = %31, %30
  %63 = load ptr, ptr %5, align 8
  ret ptr %63
}