; Function Attrs: nounwind uwtable
define internal ptr @methodcaller_vectorcall(ptr noundef readonly captures(none) %0, ptr noundef readonly captures(none) %1, i64 noundef %2, ptr noundef %3) #0 {
  %5 = alloca [8 x ptr], align 16
  %6 = and i64 %2, 9223372036854775807
  %or.cond = icmp eq i64 %6, 1
  br i1 %or.cond, label %9, label %7

7:                                                ; preds = %4
  %8 = tail call i32 @_PyArg_CheckPositional(ptr noundef nonnull @.str.87, i64 noundef %6, i64 noundef 1, i64 noundef 1) #7
  %.not12 = icmp eq i32 %8, 0
  br i1 %.not12, label %31, label %9

9:                                                ; preds = %4, %7
  %10 = icmp eq ptr %3, null
  br i1 %10, label %13, label %11

11:                                               ; preds = %9
  %12 = tail call i32 @_PyArg_NoKwnames(ptr noundef nonnull @.str.87, ptr noundef nonnull %3) #7
  %.not13 = icmp eq i32 %12, 0
  br i1 %.not13, label %31, label %13

13:                                               ; preds = %11, %9
  call void @llvm.lifetime.start.p0(i64 64, ptr nonnull %5) #7
  %14 = load ptr, ptr %1, align 8, !tbaa !17
  store ptr %14, ptr %5, align 16, !tbaa !17
  %15 = getelementptr inbounds nuw i8, ptr %5, i64 8
  %16 = getelementptr inbounds nuw i8, ptr %0, i64 40
  %17 = load ptr, ptr %16, align 8, !tbaa !87
  %18 = getelementptr inbounds nuw i8, ptr %17, i64 24
  %19 = getelementptr i8, ptr %17, i64 16
  %.val14 = load i64, ptr %19, align 8, !tbaa !43
  %20 = shl i64 %.val14, 3
  call void @llvm.memcpy.p0.p0.i64(ptr nonnull align 8 %15, ptr nonnull align 8 %18, i64 %20, i1 false)
  %21 = getelementptr inbounds nuw i8, ptr %0, i64 16
  %22 = load ptr, ptr %21, align 8, !tbaa !83
  %23 = getelementptr inbounds nuw i8, ptr %0, i64 24
  %24 = load ptr, ptr %23, align 8, !tbaa !85
  %25 = getelementptr i8, ptr %24, i64 16
  %.val = load i64, ptr %25, align 8, !tbaa !43
  %26 = add i64 %.val, 1
  %27 = or i64 %26, -9223372036854775808
  %28 = getelementptr inbounds nuw i8, ptr %0, i64 48
  %29 = load ptr, ptr %28, align 8, !tbaa !88
  %30 = call ptr @PyObject_VectorcallMethod(ptr noundef %22, ptr noundef nonnull %5, i64 noundef %27, ptr noundef %29) #7
  call void @llvm.lifetime.end.p0(i64 64, ptr nonnull %5) #7
  br label %31

31:                                               ; preds = %7, %11, %13
  %.0 = phi ptr [ %30, %13 ], [ null, %11 ], [ null, %7 ]
  ret ptr %.0
}